target datalayout = "e-m:e-p270:32:32-p271:32:32-p272:64:64-i64:64-i128:128-f80:128-n8:16:32:64-S128"
target triple = "x86_64-pc-linux-gnu"

%"class.std::function.139" = type { %"class.std::_Function_base", ptr }
%"class.std::_Function_base" = type { %"union.std::_Any_data", ptr }
%"union.std::_Any_data" = type { %"union.std::_Nocopy_types" }
%"union.std::_Nocopy_types" = type { { i64, i64 } }
%class.anon = type <{ ptr, i64, i8, i8, [6 x i8] }>
%"class.gmx::ExpandedEnsembleElement" = type { %"class.gmx::ISimulatorElement", %"class.gmx::ICheckpointHelperClient", %"class.gmx::ILoggingSignallerClient", ptr, i8, i64, i32, i64, %"class.std::unique_ptr", %"class.std::__cxx11::basic_string", i8, ptr, ptr, ptr, ptr }
%"class.gmx::ISimulatorElement" = type { ptr }
%"class.gmx::ICheckpointHelperClient" = type { ptr }
%"class.gmx::ILoggingSignallerClient" = type { ptr }
%"class.std::unique_ptr" = type { %"struct.std::__uniq_ptr_data" }
%"struct.std::__uniq_ptr_data" = type { %"class.std::__uniq_ptr_impl" }
%"class.std::__uniq_ptr_impl" = type { %"class.std::tuple" }
%"class.std::tuple" = type { %"struct.std::_Tuple_impl" }
%"struct.std::_Tuple_impl" = type { %"struct.std::_Head_base.28" }
%"struct.std::_Head_base.28" = type { ptr }
%"class.std::__cxx11::basic_string" = type { %"struct.std::__cxx11::basic_string<char>::_Alloc_hider", i64, %union.anon }
%"struct.std::__cxx11::basic_string<char>::_Alloc_hider" = type { ptr }
%union.anon = type { i64, [8 x i8] }
%"class.std::function.137" = type { %"class.std::_Function_base", ptr }

; Function Attrs: mustprogress nounwind uwtable
define linkonce_odr noundef ptr @_ZNSt9_Any_data9_M_accessEv(ptr noundef nonnull align 8 dereferenceable(16) %0) #1 comdat align 2 {
  %2 = alloca ptr, align 8
  store ptr %0, ptr %2, align 8
  %3 = load ptr, ptr %2, align 8
  %4 = getelementptr inbounds [16 x i8], ptr %3, i64 0, i64 0
  ret ptr %4
}

; Function Attrs: mustprogress nounwind uwtable
define internal noundef nonnull align 8 dereferenceable(8) ptr @"_ZNSt9_Any_data9_M_accessIPZN3gmx23ExpandedEnsembleElement12scheduleTaskEldRKSt8functionIFvS3_IFvvEEEEE3$_0EERT_v"(ptr noundef nonnull align 8 dereferenceable(16) %0) #1 align 2 {
  %2 = alloca ptr, align 8
  store ptr %0, ptr %2, align 8
  %3 = load ptr, ptr %2, align 8
  %4 = call noundef ptr @_ZNSt9_Any_data9_M_accessEv(ptr noundef nonnull align 8 dereferenceable(16) %3) #15
  ret ptr %4
}

; Function Attrs: mustprogress uwtable
define internal void @"_ZNSt14_Function_base13_Base_managerIZN3gmx23ExpandedEnsembleElement12scheduleTaskEldRKSt8functionIFvS3_IFvvEEEEE3$_0E9_M_createISA_EEvRSt9_Any_dataOT_St17integral_constantIbLb0EE"(ptr noundef nonnull align 8 dereferenceable(16) %0, ptr noundef nonnull align 8 dereferenceable(18) %1) #0 align 2 {
  %3 = alloca ptr, align 8
  %4 = alloca ptr, align 8
  store ptr %0, ptr %3, align 8
  store ptr %1, ptr %4, align 8
  %5 = call noalias noundef nonnull ptr @_Znwm(i64 noundef 24) #19
  %6 = load ptr, ptr %4, align 8
  call void @llvm.memcpy.p0.p0.i64(ptr align 16 %5, ptr align 8 %6, i64 24, i1 false)
  %7 = load ptr, ptr %3, align 8
  %8 = call noundef nonnull align 8 dereferenceable(8) ptr @"_ZNSt9_Any_data9_M_accessIPZN3gmx23ExpandedEnsembleElement12scheduleTaskEldRKSt8functionIFvS3_IFvvEEEEE3$_0EERT_v"(ptr noundef nonnull align 8 dereferenceable(16) %7) #15
  store ptr %5, ptr %8, align 8
  ret void
}

; Function Attrs: mustprogress nounwind uwtable
define linkonce_odr noundef zeroext i1 @_ZNKSt14_Function_base8_M_emptyEv(ptr noundef nonnull align 8 dereferenceable(24) %0) #1 comdat align 2 {
  %2 = alloca ptr, align 8
  store ptr %0, ptr %2, align 8
  %3 = load ptr, ptr %2, align 8
  %4 = getelementptr inbounds %"class.std::_Function_base", ptr %3, i32 0, i32 1
  %5 = load ptr, ptr %4, align 8
  %6 = icmp ne ptr %5, null
  %7 = xor i1 %6, true
  ret i1 %7
}

; Function Attrs: mustprogress nounwind uwtable
define linkonce_odr void @_ZNSt14_Function_baseD2Ev(ptr noundef nonnull align 8 dereferenceable(24) %0) unnamed_addr #1 comdat align 2 personality ptr @__gxx_personality_v0 {
  %2 = alloca ptr, align 8
  store ptr %0, ptr %2, align 8
  %3 = load ptr, ptr %2, align 8
  %4 = getelementptr inbounds %"class.std::_Function_base", ptr %3, i32 0, i32 1
  %5 = load ptr, ptr %4, align 8
  %6 = icmp ne ptr %5, null
  br i1 %6, label %7, label %14

7:                                                ; preds = %1
  %8 = getelementptr inbounds %"class.std::_Function_base", ptr %3, i32 0, i32 1
  %9 = load ptr, ptr %8, align 8
  %10 = getelementptr inbounds %"class.std::_Function_base", ptr %3, i32 0, i32 0
  %11 = getelementptr inbounds %"class.std::_Function_base", ptr %3, i32 0, i32 0
  %12 = invoke noundef zeroext i1 %9(ptr noundef nonnull align 8 dereferenceable(16) %10, ptr noundef nonnull align 8 dereferenceable(16) %11, i32 noundef 3)
          to label %13 unwind label %15

13:                                               ; preds = %7
  br label %14

14:                                               ; preds = %13, %1
  ret void

15:                                               ; preds = %7
  %16 = landingpad { ptr, i32 }
          catch ptr null
  %17 = extractvalue { ptr, i32 } %16, 0
  call void @__clang_call_terminate(ptr %17) #18
  unreachable
}

; Function Attrs: mustprogress uwtable
define internal void @"_ZNSt14_Function_base13_Base_managerIZN3gmx23ExpandedEnsembleElement12scheduleTaskEldRKSt8functionIFvS3_IFvvEEEEE3$_0E15_M_init_functorISA_EEvRSt9_Any_dataOT_"(ptr noundef nonnull align 8 dereferenceable(16) %0, ptr noundef nonnull align 8 dereferenceable(18) %1) #0 align 2 {
  %3 = alloca ptr, align 8
  %4 = alloca ptr, align 8
  store ptr %0, ptr %3, align 8
  store ptr %1, ptr %4, align 8
  %5 = load ptr, ptr %3, align 8
  %6 = load ptr, ptr %4, align 8
  call void @"_ZNSt14_Function_base13_Base_managerIZN3gmx23ExpandedEnsembleElement12scheduleTaskEldRKSt8functionIFvS3_IFvvEEEEE3$_0E9_M_createISA_EEvRSt9_Any_dataOT_St17integral_constantIbLb0EE"(ptr noundef nonnull align 8 dereferenceable(16) %5, ptr noundef nonnull align 8 dereferenceable(18) %6)
  ret void
}

; Function Attrs: mustprogress nounwind uwtable
define internal noundef zeroext i1 @"_ZNSt14_Function_base13_Base_managerIZN3gmx23ExpandedEnsembleElement12scheduleTaskEldRKSt8functionIFvS3_IFvvEEEEE3$_0E21_M_not_empty_functionISA_EEbRKT_"(ptr noundef nonnull align 8 dereferenceable(18) %0) #1 align 2 {
  %2 = alloca ptr, align 8
  store ptr %0, ptr %2, align 8
  ret i1 true
}

; Function Attrs: mustprogress nounwind uwtable
define linkonce_odr void @_ZNSt14_Function_baseC2Ev(ptr noundef nonnull align 8 dereferenceable(24) %0) unnamed_addr #1 comdat align 2 {
  %2 = alloca ptr, align 8
  store ptr %0, ptr %2, align 8
  %3 = load ptr, ptr %2, align 8
  %4 = getelementptr inbounds %"class.std::_Function_base", ptr %3, i32 0, i32 0
  store ptr null, ptr %4, align 8
  %5 = getelementptr inbounds %"class.std::_Function_base", ptr %3, i32 0, i32 1
  store ptr null, ptr %5, align 8
  ret void
}

; Function Attrs: mustprogress nounwind uwtable
define linkonce_odr void @_ZNSt8functionIFvvEED2Ev(ptr noundef nonnull align 8 dereferenceable(32) %0) unnamed_addr #1 comdat align 2 {
  %2 = alloca ptr, align 8
  store ptr %0, ptr %2, align 8
  %3 = load ptr, ptr %2, align 8
  call void @_ZNSt14_Function_baseD2Ev(ptr noundef nonnull align 8 dereferenceable(24) %3) #15
  ret void
}

; Function Attrs: mustprogress uwtable
define linkonce_odr void @_ZNKSt8functionIFvS_IFvvEEEEclES1_(ptr noundef nonnull align 8 dereferenceable(32) %0, ptr noundef %1) #0 comdat align 2 {
  %3 = alloca ptr, align 8
  %4 = alloca ptr, align 8
  store ptr %0, ptr %3, align 8
  store ptr %1, ptr %4, align 8
  %5 = load ptr, ptr %3, align 8
  %6 = call noundef zeroext i1 @_ZNKSt14_Function_base8_M_emptyEv(ptr noundef nonnull align 8 dereferenceable(24) %5)
  br i1 %6, label %7, label %8

7:                                                ; preds = %2
  call void @_ZSt25__throw_bad_function_callv() #16
  unreachable

8:                                                ; preds = %2
  %9 = getelementptr inbounds %"class.std::function.137", ptr %5, i32 0, i32 1
  %10 = load ptr, ptr %9, align 8
  %11 = getelementptr inbounds %"class.std::_Function_base", ptr %5, i32 0, i32 0
  call void %10(ptr noundef nonnull align 8 dereferenceable(16) %11, ptr noundef nonnull align 8 dereferenceable(32) %1)
  ret void
}

; Function Attrs: mustprogress uwtable
define internal void @"_ZNSt8functionIFvvEEC2IZN3gmx23ExpandedEnsembleElement12scheduleTaskEldRKS_IFvS1_EEE3$_0vEEOT_"(ptr noundef nonnull align 8 dereferenceable(32) %0, ptr noundef nonnull align 8 dereferenceable(18) %1) unnamed_addr #0 align 2 personality ptr @__gxx_personality_v0 {
  %3 = alloca ptr, align 8
  %4 = alloca ptr, align 8
  %5 = alloca ptr, align 8
  %6 = alloca i32, align 4
  store ptr %0, ptr %3, align 8
  store ptr %1, ptr %4, align 8
  %7 = load ptr, ptr %3, align 8
  %8 = getelementptr inbounds i8, ptr %7, i64 0
  call void @llvm.memset.p0.i64(ptr align 8 %8, i8 0, i64 24, i1 false)
  call void @_ZNSt14_Function_baseC2Ev(ptr noundef nonnull align 8 dereferenceable(24) %7) #15
  %9 = getelementptr inbounds %"class.std::function.139", ptr %7, i32 0, i32 1
  store ptr null, ptr %9, align 8
  %10 = load ptr, ptr %4, align 8
  %11 = call noundef zeroext i1 @"_ZNSt14_Function_base13_Base_managerIZN3gmx23ExpandedEnsembleElement12scheduleTaskEldRKSt8functionIFvS3_IFvvEEEEE3$_0E21_M_not_empty_functionISA_EEbRKT_"(ptr noundef nonnull align 8 dereferenceable(18) %10) #15
  br i1 %11, label %12, label %22

12:                                               ; preds = %2
  %13 = getelementptr inbounds %"class.std::_Function_base", ptr %7, i32 0, i32 0
  %14 = load ptr, ptr %4, align 8
  invoke void @"_ZNSt14_Function_base13_Base_managerIZN3gmx23ExpandedEnsembleElement12scheduleTaskEldRKSt8functionIFvS3_IFvvEEEEE3$_0E15_M_init_functorISA_EEvRSt9_Any_dataOT_"(ptr noundef nonnull align 8 dereferenceable(16) %13, ptr noundef nonnull align 8 dereferenceable(18) %14)
          to label %15 unwind label %18

15:                                               ; preds = %12
  %16 = getelementptr inbounds %"class.std::function.139", ptr %7, i32 0, i32 1
  store ptr @"_ZNSt17_Function_handlerIFvvEZN3gmx23ExpandedEnsembleElement12scheduleTaskEldRKSt8functionIFvS3_IS0_EEEE3$_0E9_M_invokeERKSt9_Any_data", ptr %16, align 8
  %17 = getelementptr inbounds %"class.std::_Function_base", ptr %7, i32 0, i32 1
  store ptr @"_ZNSt17_Function_handlerIFvvEZN3gmx23ExpandedEnsembleElement12scheduleTaskEldRKSt8functionIFvS3_IS0_EEEE3$_0E10_M_managerERSt9_Any_dataRKSB_St18_Manager_operation", ptr %17, align 8
  br label %22

18:                                               ; preds = %12
  %19 = landingpad { ptr, i32 }
          cleanup
  %20 = extractvalue { ptr, i32 } %19, 0
  store ptr %20, ptr %5, align 8
  %21 = extractvalue { ptr, i32 } %19, 1
  store i32 %21, ptr %6, align 4
  call void @_ZNSt14_Function_baseD2Ev(ptr noundef nonnull align 8 dereferenceable(24) %7) #15
  br label %23

22:                                               ; preds = %15, %2
  ret void

23:                                               ; preds = %18
  %24 = load ptr, ptr %5, align 8
  %25 = load i32, ptr %6, align 4
  %26 = insertvalue { ptr, i32 } poison, ptr %24, 0
  %27 = insertvalue { ptr, i32 } %26, i32 %25, 1
  resume { ptr, i32 } %27
}

; Function Attrs: mustprogress nounwind uwtable
define linkonce_odr noundef zeroext i1 @_Z11do_per_stepll(i64 noundef %0, i64 noundef %1) #1 comdat {
  %3 = alloca i1, align 1
  %4 = alloca i64, align 8
  %5 = alloca i64, align 8
  store i64 %0, ptr %4, align 8
  store i64 %1, ptr %5, align 8
  %6 = load i64, ptr %5, align 8
  %7 = icmp ne i64 %6, 0
  br i1 %7, label %8, label %13

8:                                                ; preds = %2
  %9 = load i64, ptr %4, align 8
  %10 = load i64, ptr %5, align 8
  %11 = srem i64 %9, %10
  %12 = icmp eq i64 %11, 0
  store i1 %12, ptr %3, align 1
  br label %14

13:                                               ; preds = %2
  store i1 false, ptr %3, align 1
  br label %14

14:                                               ; preds = %13, %8
  %15 = load i1, ptr %3, align 1
  ret i1 %15
}

; Function Attrs: mustprogress uwtable
define void @_ZN3gmx23ExpandedEnsembleElement12scheduleTaskEldRKSt8functionIFvS1_IFvvEEEE(ptr noundef nonnull align 8 dereferenceable(144) %0, i64 noundef %1, double noundef %2, ptr noundef nonnull align 8 dereferenceable(32) %3) unnamed_addr #0 align 2 personality ptr @__gxx_personality_v0 {
  %5 = alloca ptr, align 8
  %6 = alloca i64, align 8
  %7 = alloca double, align 8
  %8 = alloca ptr, align 8
  %9 = alloca i8, align 1
  %10 = alloca i8, align 1
  %11 = alloca i8, align 1
  %12 = alloca %"class.std::function.139", align 8
  %13 = alloca %class.anon, align 8
  %14 = alloca ptr, align 8
  %15 = alloca i32, align 4
  store ptr %0, ptr %5, align 8
  store i64 %1, ptr %6, align 8
  store double %2, ptr %7, align 8
  store ptr %3, ptr %8, align 8
  %16 = load ptr, ptr %5, align 8
  %17 = load i64, ptr %6, align 8
  %18 = getelementptr inbounds %"class.gmx::ExpandedEnsembleElement", ptr %16, i32 0, i32 5
  %19 = load i64, ptr %18, align 8
  %20 = icmp eq i64 %17, %19
  br i1 %20, label %21, label %26

21:                                               ; preds = %4
  %22 = getelementptr inbounds %"class.gmx::ExpandedEnsembleElement", ptr %16, i32 0, i32 10
  %23 = load i8, ptr %22, align 8
  %24 = trunc i8 %23 to i1
  %25 = xor i1 %24, true
  br label %26

26:                                               ; preds = %21, %4
  %27 = phi i1 [ false, %4 ], [ %25, %21 ]
  %28 = zext i1 %27 to i8
  store i8 %28, ptr %9, align 1
  %29 = load i64, ptr %6, align 8
  %30 = getelementptr inbounds %"class.gmx::ExpandedEnsembleElement", ptr %16, i32 0, i32 6
  %31 = load i32, ptr %30, align 8
  %32 = sext i32 %31 to i64
  %33 = call noundef zeroext i1 @_Z11do_per_stepll(i64 noundef %29, i64 noundef %32)
  br i1 %33, label %34, label %38

34:                                               ; preds = %26
  %35 = load i8, ptr %9, align 1
  %36 = trunc i8 %35 to i1
  %37 = xor i1 %36, true
  br label %38

38:                                               ; preds = %34, %26
  %39 = phi i1 [ false, %26 ], [ %37, %34 ]
  %40 = zext i1 %39 to i8
  store i8 %40, ptr %10, align 1
  %41 = getelementptr inbounds %"class.gmx::ExpandedEnsembleElement", ptr %16, i32 0, i32 4
  %42 = load i8, ptr %41, align 8
  %43 = trunc i8 %42 to i1
  br i1 %43, label %44, label %53

44:                                               ; preds = %38
  %45 = load i64, ptr %6, align 8
  %46 = getelementptr inbounds %"class.gmx::ExpandedEnsembleElement", ptr %16, i32 0, i32 7
  %47 = load i64, ptr %46, align 8
  %48 = icmp eq i64 %45, %47
  br i1 %48, label %49, label %53

49:                                               ; preds = %44
  %50 = getelementptr inbounds %"class.gmx::ExpandedEnsembleElement", ptr %16, i32 0, i32 13
  %51 = load ptr, ptr %50, align 8
  %52 = icmp ne ptr %51, null
  br label %53

53:                                               ; preds = %49, %44, %38
  %54 = phi i1 [ false, %44 ], [ false, %38 ], [ %52, %49 ]
  %55 = zext i1 %54 to i8
  store i8 %55, ptr %11, align 1
  %56 = load i8, ptr %10, align 1
  %57 = trunc i8 %56 to i1
  br i1 %57, label %61, label %58

58:                                               ; preds = %53
  %59 = load i8, ptr %11, align 1
  %60 = trunc i8 %59 to i1
  br i1 %60, label %61, label %79

61:                                               ; preds = %58, %53
  %62 = load ptr, ptr %8, align 8
  %63 = getelementptr inbounds %class.anon, ptr %13, i32 0, i32 0
  store ptr %16, ptr %63, align 8
  %64 = getelementptr inbounds %class.anon, ptr %13, i32 0, i32 1
  %65 = load i64, ptr %6, align 8
  store i64 %65, ptr %64, align 8
  %66 = getelementptr inbounds %class.anon, ptr %13, i32 0, i32 2
  %67 = load i8, ptr %10, align 1
  %68 = trunc i8 %67 to i1
  %69 = zext i1 %68 to i8
  store i8 %69, ptr %66, align 8
  %70 = getelementptr inbounds %class.anon, ptr %13, i32 0, i32 3
  %71 = load i8, ptr %11, align 1
  %72 = trunc i8 %71 to i1
  %73 = zext i1 %72 to i8
  store i8 %73, ptr %70, align 1
  call void @"_ZNSt8functionIFvvEEC2IZN3gmx23ExpandedEnsembleElement12scheduleTaskEldRKS_IFvS1_EEE3$_0vEEOT_"(ptr noundef nonnull align 8 dereferenceable(32) %12, ptr noundef nonnull align 8 dereferenceable(18) %13)
  invoke void @_ZNKSt8functionIFvS_IFvvEEEEclES1_(ptr noundef nonnull align 8 dereferenceable(32) %62, ptr noundef %12)
          to label %74 unwind label %75

74:                                               ; preds = %61
  call void @_ZNSt8functionIFvvEED2Ev(ptr noundef nonnull align 8 dereferenceable(32) %12) #15
  br label %79

75:                                               ; preds = %61
  %76 = landingpad { ptr, i32 }
          cleanup
  %77 = extractvalue { ptr, i32 } %76, 0
  store ptr %77, ptr %14, align 8
  %78 = extractvalue { ptr, i32 } %76, 1
  store i32 %78, ptr %15, align 4
  call void @_ZNSt8functionIFvvEED2Ev(ptr noundef nonnull align 8 dereferenceable(32) %12) #15
  br label %88

79:                                               ; preds = %74, %58
  %80 = load i8, ptr %10, align 1
  %81 = trunc i8 %80 to i1
  br i1 %81, label %82, label %87

82:                                               ; preds = %79
  %83 = getelementptr inbounds %"class.gmx::ExpandedEnsembleElement", ptr %16, i32 0, i32 3
  %84 = load ptr, ptr %83, align 8
  %85 = load i64, ptr %6, align 8
  %86 = add nsw i64 %85, 1
  call void @_ZN3gmx15FepStateSetting17signalSettingStepEl(ptr noundef nonnull align 8 dereferenceable(24) %84, i64 noundef %86)
  br label %87

87:                                               ; preds = %82, %79
  ret void

88:                                               ; preds = %75
  %89 = load ptr, ptr %14, align 8
  %90 = load i32, ptr %15, align 4
  %91 = insertvalue { ptr, i32 } poison, ptr %89, 0
  %92 = insertvalue { ptr, i32 } %91, i32 %90, 1
  resume { ptr, i32 } %92
}