; Function Attrs: mustprogress uwtable
define void @_ZN3gmx23ExpandedEnsembleElement12scheduleTaskEldRKSt8functionIFvS1_IFvvEEEE(ptr noundef nonnull align 8 dereferenceable(144) %0, i64 noundef %1, double %2, ptr noundef nonnull align 8 dereferenceable(32) %3) unnamed_addr #0 align 2 personality ptr @__gxx_personality_v0 {
  %5 = alloca %"class.std::function.139", align 8
  %6 = getelementptr inbounds i8, ptr %0, i64 48
  %7 = load i32, ptr %6, align 8
  %.not.i = icmp eq i32 %7, 0
  br i1 %.not.i, label %_Z11do_per_stepll.exit, label %8

8:                                                ; preds = %4
  %9 = getelementptr inbounds i8, ptr %0, i64 40
  %10 = load i64, ptr %9, align 8
  %11 = icmp ne i64 %10, %1
  %12 = getelementptr inbounds i8, ptr %0, i64 104
  %13 = load i8, ptr %12, align 8
  %14 = trunc i8 %13 to i1
  %15 = select i1 %11, i1 true, i1 %14
  %16 = sext i32 %7 to i64
  %17 = srem i64 %1, %16
  %18 = icmp eq i64 %17, 0
  %19 = select i1 %18, i1 %15, i1 false
  br label %_Z11do_per_stepll.exit

_Z11do_per_stepll.exit:                           ; preds = %4, %8
  %.0.i = phi i1 [ %19, %8 ], [ false, %4 ]
  %20 = zext i1 %.0.i to i8
  %21 = getelementptr inbounds i8, ptr %0, i64 32
  %22 = load i8, ptr %21, align 8
  %23 = trunc i8 %22 to i1
  %24 = getelementptr inbounds i8, ptr %0, i64 56
  %25 = load i64, ptr %24, align 8
  %26 = icmp eq i64 %25, %1
  %or.cond = select i1 %23, i1 %26, i1 false
  br i1 %or.cond, label %27, label %31

27:                                               ; preds = %_Z11do_per_stepll.exit
  %28 = getelementptr inbounds i8, ptr %0, i64 128
  %29 = load ptr, ptr %28, align 8
  %30 = icmp ne ptr %29, null
  br label %31

31:                                               ; preds = %27, %_Z11do_per_stepll.exit
  %32 = phi i1 [ false, %_Z11do_per_stepll.exit ], [ %30, %27 ]
  %brmerge = select i1 %.0.i, i1 true, i1 %32
  br i1 %brmerge, label %33, label %_ZNSt8functionIFvvEED2Ev.exit

33:                                               ; preds = %31
  %34 = zext i1 %32 to i8
  %35 = getelementptr inbounds i8, ptr %5, i64 16
  %36 = getelementptr inbounds i8, ptr %5, i64 24
  %37 = getelementptr inbounds i8, ptr %5, i64 8
  store i64 0, ptr %37, align 8
  %38 = tail call noalias noundef nonnull dereferenceable(24) ptr @_Znwm(i64 noundef 24) #22
  store ptr %0, ptr %38, align 16
  %.sroa.2.0..sroa_idx = getelementptr inbounds i8, ptr %38, i64 8
  store i64 %1, ptr %.sroa.2.0..sroa_idx, align 8
  %.sroa.3.0..sroa_idx = getelementptr inbounds i8, ptr %38, i64 16
  store i8 %20, ptr %.sroa.3.0..sroa_idx, align 16
  %.sroa.4.0..sroa_idx = getelementptr inbounds i8, ptr %38, i64 17
  store i8 %34, ptr %.sroa.4.0..sroa_idx, align 1
  store ptr %38, ptr %5, align 8
  store ptr @"_ZNSt17_Function_handlerIFvvEZN3gmx23ExpandedEnsembleElement12scheduleTaskEldRKSt8functionIFvS3_IS0_EEEE3$_0E9_M_invokeERKSt9_Any_data", ptr %36, align 8
  store ptr @"_ZNSt17_Function_handlerIFvvEZN3gmx23ExpandedEnsembleElement12scheduleTaskEldRKSt8functionIFvS3_IS0_EEEE3$_0E10_M_managerERSt9_Any_dataRKSB_St18_Manager_operation", ptr %35, align 8
  %39 = getelementptr inbounds i8, ptr %3, i64 16
  %40 = load ptr, ptr %39, align 8
  %.not.i.i = icmp eq ptr %40, null
  br i1 %.not.i.i, label %41, label %42

41:                                               ; preds = %33
  invoke void @_ZSt25__throw_bad_function_callv() #23
          to label %.noexc unwind label %51

.noexc:                                           ; preds = %41
  unreachable

42:                                               ; preds = %33
  %43 = getelementptr inbounds i8, ptr %3, i64 24
  %44 = load ptr, ptr %43, align 8
  invoke void %44(ptr noundef nonnull align 8 dereferenceable(16) %3, ptr noundef nonnull align 8 dereferenceable(32) %5)
          to label %_ZNKSt8functionIFvS_IFvvEEEEclES1_.exit unwind label %51

_ZNKSt8functionIFvS_IFvvEEEEclES1_.exit:          ; preds = %42
  %45 = load ptr, ptr %35, align 8
  %.not.i.i17 = icmp eq ptr %45, null
  br i1 %.not.i.i17, label %_ZNSt8functionIFvvEED2Ev.exit, label %46

46:                                               ; preds = %_ZNKSt8functionIFvS_IFvvEEEEclES1_.exit
  %47 = invoke noundef zeroext i1 %45(ptr noundef nonnull align 8 dereferenceable(16) %5, ptr noundef nonnull align 8 dereferenceable(16) %5, i32 noundef 3)
          to label %_ZNSt8functionIFvvEED2Ev.exit unwind label %48

48:                                               ; preds = %46
  %49 = landingpad { ptr, i32 }
          catch ptr null
  %50 = extractvalue { ptr, i32 } %49, 0
  call void @__clang_call_terminate(ptr %50) #24
  unreachable

51:                                               ; preds = %42, %41
  %52 = landingpad { ptr, i32 }
          cleanup
  %53 = load ptr, ptr %35, align 8
  %.not.i.i18 = icmp eq ptr %53, null
  br i1 %.not.i.i18, label %_ZNSt8functionIFvvEED2Ev.exit19, label %54

54:                                               ; preds = %51
  %55 = invoke noundef zeroext i1 %53(ptr noundef nonnull align 8 dereferenceable(16) %5, ptr noundef nonnull align 8 dereferenceable(16) %5, i32 noundef 3)
          to label %_ZNSt8functionIFvvEED2Ev.exit19 unwind label %56

56:                                               ; preds = %54
  %57 = landingpad { ptr, i32 }
          catch ptr null
  %58 = extractvalue { ptr, i32 } %57, 0
  call void @__clang_call_terminate(ptr %58) #24
  unreachable

_ZNSt8functionIFvvEED2Ev.exit19:                  ; preds = %51, %54
  resume { ptr, i32 } %52

_ZNSt8functionIFvvEED2Ev.exit:                    ; preds = %46, %_ZNKSt8functionIFvS_IFvvEEEEclES1_.exit, %31
  br i1 %.0.i, label %59, label %63

59:                                               ; preds = %_ZNSt8functionIFvvEED2Ev.exit
  %60 = getelementptr inbounds i8, ptr %0, i64 24
  %61 = load ptr, ptr %60, align 8
  %62 = add nsw i64 %1, 1
  call void @_ZN3gmx15FepStateSetting17signalSettingStepEl(ptr noundef nonnull align 8 dereferenceable(24) %61, i64 noundef %62)
  br label %63

63:                                               ; preds = %59, %_ZNSt8functionIFvvEED2Ev.exit
  ret void
}